; Function Attrs: mustprogress nofree norecurse nosync nounwind memory(read, argmem: readwrite, inaccessiblemem: none) uwtable
define noundef zeroext i1 @_ZN7Minisat10SimpSolver5mergeERKNS_6ClauseES3_iRi(ptr nocapture noundef nonnull align 8 dereferenceable(1196) %0, ptr nocapture noundef nonnull readonly align 4 dereferenceable(4) %1, ptr nocapture noundef nonnull readonly align 4 dereferenceable(4) %2, i32 noundef %3, ptr nocapture noundef nonnull writeonly align 4 dereferenceable(4) %4) local_unnamed_addr #8 align 2 {
  %6 = getelementptr inbounds i8, ptr %0, i64 884
  %7 = load i32, ptr %6, align 4
  %8 = add nsw i32 %7, 1
  store i32 %8, ptr %6, align 4
  %9 = load i32, ptr %1, align 4
  %10 = lshr i32 %9, 5
  %11 = load i32, ptr %2, align 4
  %12 = lshr i32 %11, 5
  %13 = icmp ult i32 %10, %12
  %14 = select i1 %13, i32 %11, i32 %9
  %15 = select i1 %13, ptr %2, ptr %1
  %16 = select i1 %13, ptr %1, ptr %2
  %17 = getelementptr inbounds i8, ptr %15, i64 4
  %18 = getelementptr inbounds i8, ptr %16, i64 4
  %19 = lshr i32 %14, 5
  %20 = add nsw i32 %19, -1
  store i32 %20, ptr %4, align 4
  %21 = load i32, ptr %16, align 4
  %22 = icmp ult i32 %21, 32
  br i1 %22, label %._crit_edge41, label %.lr.ph40

.lr.ph40:                                         ; preds = %5, %37
  %23 = phi i32 [ %38, %37 ], [ %21, %5 ]
  %24 = phi i32 [ %39, %37 ], [ %20, %5 ]
  %indvars.iv47 = phi i64 [ %indvars.iv.next48, %37 ], [ 0, %5 ]
  %25 = getelementptr inbounds %"struct.Minisat::Lit", ptr %18, i64 %indvars.iv47
  %.sroa.07.0.copyload = load i32, ptr %25, align 4
  %26 = ashr i32 %.sroa.07.0.copyload, 1
  %.not = icmp eq i32 %26, %3
  br i1 %.not, label %37, label %.preheader

.preheader:                                       ; preds = %.lr.ph40
  %27 = load i32, ptr %15, align 4
  %.not44 = icmp ult i32 %27, 32
  br i1 %.not44, label %._crit_edge, label %.lr.ph.preheader

.lr.ph.preheader:                                 ; preds = %.preheader
  %28 = lshr i32 %27, 5
  %wide.trip.count = zext nneg i32 %28 to i64
  br label %.lr.ph

29:                                               ; preds = %.lr.ph
  %indvars.iv.next = add nuw nsw i64 %indvars.iv, 1
  %exitcond.not = icmp eq i64 %indvars.iv.next, %wide.trip.count
  br i1 %exitcond.not, label %._crit_edge, label %.lr.ph, !llvm.loop !30

.lr.ph:                                           ; preds = %.lr.ph.preheader, %29
  %indvars.iv = phi i64 [ 0, %.lr.ph.preheader ], [ %indvars.iv.next, %29 ]
  %30 = getelementptr inbounds %"struct.Minisat::Lit", ptr %17, i64 %indvars.iv
  %.sroa.03.0.copyload = load i32, ptr %30, align 4
  %31 = ashr i32 %.sroa.03.0.copyload, 1
  %32 = icmp eq i32 %31, %26
  br i1 %32, label %33, label %29

33:                                               ; preds = %.lr.ph
  %34 = xor i32 %.sroa.03.0.copyload, %.sroa.07.0.copyload
  %35 = icmp eq i32 %34, 1
  br i1 %35, label %._crit_edge41, label %37

._crit_edge:                                      ; preds = %29, %.preheader
  %36 = add nsw i32 %24, 1
  store i32 %36, ptr %4, align 4
  %.pre = load i32, ptr %16, align 4
  br label %37

37:                                               ; preds = %33, %._crit_edge, %.lr.ph40
  %38 = phi i32 [ %23, %33 ], [ %.pre, %._crit_edge ], [ %23, %.lr.ph40 ]
  %39 = phi i32 [ %24, %33 ], [ %36, %._crit_edge ], [ %24, %.lr.ph40 ]
  %indvars.iv.next48 = add nuw nsw i64 %indvars.iv47, 1
  %40 = lshr i32 %38, 5
  %41 = zext nneg i32 %40 to i64
  %.not49 = icmp ult i64 %indvars.iv.next48, %41
  br i1 %.not49, label %.lr.ph40, label %._crit_edge41, !llvm.loop !31

._crit_edge41:                                    ; preds = %33, %37, %5
  %.lcssa = phi i1 [ true, %5 ], [ true, %37 ], [ false, %33 ]
  ret i1 %.lcssa
}